target datalayout = "e-m:e-p270:32:32-p271:32:32-p272:64:64-i64:64-i128:128-f80:128-n8:16:32:64-S128"
target triple = "x86_64-pc-linux-gnu"

@_ZN6google24glog_internal_namespace_L17g_main_thread_pidE = internal global i32 0, align 4

; Function Attrs: mustprogress nounwind uwtable
define hidden noundef zeroext i1 @_ZN6google24glog_internal_namespace_13PidHasChangedEv() #2 {
  %1 = alloca i1, align 1
  %2 = alloca i32, align 4
  %3 = alloca i32, align 4
  call void @llvm.lifetime.start.p0(i64 4, ptr %2) #7
  %4 = call i32 @getpid() #7
  store i32 %4, ptr %2, align 4, !tbaa !11
  %5 = load i32, ptr @_ZN6google24glog_internal_namespace_L17g_main_thread_pidE, align 4, !tbaa !11
  %6 = load i32, ptr %2, align 4, !tbaa !11
  %7 = icmp eq i32 %5, %6
  br i1 %7, label %8, label %9

8:                                                ; preds = %0
  store i1 false, ptr %1, align 1
  store i32 1, ptr %3, align 4
  br label %11

9:                                                ; preds = %0
  %10 = load i32, ptr %2, align 4, !tbaa !11
  store i32 %10, ptr @_ZN6google24glog_internal_namespace_L17g_main_thread_pidE, align 4, !tbaa !11
  store i1 true, ptr %1, align 1
  store i32 1, ptr %3, align 4
  br label %11

11:                                               ; preds = %9, %8
  call void @llvm.lifetime.end.p0(i64 4, ptr %2) #7
  %12 = load i1, ptr %1, align 1
  ret i1 %12
}